target datalayout = "e-m:e-p270:32:32-p271:32:32-p272:64:64-i64:64-i128:128-f80:128-n8:16:32:64-S128"
target triple = "x86_64-unknown-linux-gnu"

; Function Attrs: mustprogress nounwind uwtable
define linkonce_odr noundef float @_ZSt3powff(float noundef %__x, float noundef %__y) #4 comdat {
entry:
  %__x.addr = alloca float, align 4
  %__y.addr = alloca float, align 4
  store float %__x, ptr %__x.addr, align 4
  store float %__y, ptr %__y.addr, align 4
  %0 = load float, ptr %__x.addr, align 4
  %1 = load float, ptr %__y.addr, align 4
  %call = call float @powf(float noundef %0, float noundef %1) #3
  ret float %call
}

; Function Attrs: mustprogress nounwind uwtable
define hidden noundef float @_ZN9SampleICC6icFtoDEi(i32 noundef %num) #4 {
entry:
  %num.addr = alloca i32, align 4
  store i32 %num, ptr %num.addr, align 4
  %0 = load i32, ptr %num.addr, align 4
  %conv = sitofp i32 %0 to double
  %div = fdiv double %conv, 6.553600e+04
  %conv1 = fptrunc double %div to float
  ret float %conv1
}

; Function Attrs: mustprogress nounwind uwtable
define linkonce_odr noundef nonnull align 4 dereferenceable(4) ptr @_ZSt3minIfERKT_S2_S2_(ptr noundef nonnull align 4 dereferenceable(4) %__a, ptr noundef nonnull align 4 dereferenceable(4) %__b) #4 comdat {
entry:
  %retval = alloca ptr, align 8
  %__a.addr = alloca ptr, align 8
  %__b.addr = alloca ptr, align 8
  store ptr %__a, ptr %__a.addr, align 8
  store ptr %__b, ptr %__b.addr, align 8
  %0 = load ptr, ptr %__b.addr, align 8
  %1 = load float, ptr %0, align 4
  %2 = load ptr, ptr %__a.addr, align 8
  %3 = load float, ptr %2, align 4
  %cmp = fcmp olt float %1, %3
  br i1 %cmp, label %if.then, label %if.end

if.then:                                          ; preds = %entry
  %4 = load ptr, ptr %__b.addr, align 8
  store ptr %4, ptr %retval, align 8
  br label %return

if.end:                                           ; preds = %entry
  %5 = load ptr, ptr %__a.addr, align 8
  store ptr %5, ptr %retval, align 8
  br label %return

return:                                           ; preds = %if.end, %if.then
  %6 = load ptr, ptr %retval, align 8
  ret ptr %6
}

; Function Attrs: mustprogress nounwind uwtable
define linkonce_odr noundef nonnull align 4 dereferenceable(4) ptr @_ZSt3maxIfERKT_S2_S2_(ptr noundef nonnull align 4 dereferenceable(4) %__a, ptr noundef nonnull align 4 dereferenceable(4) %__b) #4 comdat {
entry:
  %retval = alloca ptr, align 8
  %__a.addr = alloca ptr, align 8
  %__b.addr = alloca ptr, align 8
  store ptr %__a, ptr %__a.addr, align 8
  store ptr %__b, ptr %__b.addr, align 8
  %0 = load ptr, ptr %__a.addr, align 8
  %1 = load float, ptr %0, align 4
  %2 = load ptr, ptr %__b.addr, align 8
  %3 = load float, ptr %2, align 4
  %cmp = fcmp olt float %1, %3
  br i1 %cmp, label %if.then, label %if.end

if.then:                                          ; preds = %entry
  %4 = load ptr, ptr %__b.addr, align 8
  store ptr %4, ptr %retval, align 8
  br label %return

if.end:                                           ; preds = %entry
  %5 = load ptr, ptr %__a.addr, align 8
  store ptr %5, ptr %retval, align 8
  br label %return

return:                                           ; preds = %if.end, %if.then
  %6 = load ptr, ptr %retval, align 8
  ret ptr %6
}

; Function Attrs: mustprogress uwtable
define hidden noundef float @_ZN19OpenColorIO_v2_4dev15LocalFileFormat20ApplyParametricCurveEftPKi(float noundef %v, i16 noundef zeroext %type, ptr noundef %params) #5 align 2 {
entry:
  %v.addr = alloca float, align 4
  %type.addr = alloca i16, align 2
  %params.addr = alloca ptr, align 8
  %ref.tmp = alloca float, align 4
  %ref.tmp1 = alloca float, align 4
  %g = alloca float, align 4
  %a = alloca float, align 4
  %b = alloca float, align 4
  %g13 = alloca float, align 4
  %a16 = alloca float, align 4
  %b19 = alloca float, align 4
  %c = alloca float, align 4
  %g36 = alloca float, align 4
  %a39 = alloca float, align 4
  %b42 = alloca float, align 4
  %c45 = alloca float, align 4
  %d = alloca float, align 4
  %g60 = alloca float, align 4
  %a63 = alloca float, align 4
  %b66 = alloca float, align 4
  %c69 = alloca float, align 4
  %d72 = alloca float, align 4
  %e = alloca float, align 4
  %f = alloca float, align 4
  %ref.tmp91 = alloca float, align 4
  %ref.tmp93 = alloca float, align 4
  store float %v, ptr %v.addr, align 4
  store i16 %type, ptr %type.addr, align 2
  store ptr %params, ptr %params.addr, align 8
  store float 0.000000e+00, ptr %ref.tmp, align 4
  %call = call noundef nonnull align 4 dereferenceable(4) ptr @_ZSt3maxIfERKT_S2_S2_(ptr noundef nonnull align 4 dereferenceable(4) %ref.tmp, ptr noundef nonnull align 4 dereferenceable(4) %v.addr)
  store float 1.000000e+00, ptr %ref.tmp1, align 4
  %call2 = call noundef nonnull align 4 dereferenceable(4) ptr @_ZSt3minIfERKT_S2_S2_(ptr noundef nonnull align 4 dereferenceable(4) %call, ptr noundef nonnull align 4 dereferenceable(4) %ref.tmp1)
  %0 = load float, ptr %call2, align 4
  store float %0, ptr %v.addr, align 4
  %1 = load i16, ptr %type.addr, align 2
  %conv = zext i16 %1 to i32
  %cmp = icmp eq i32 %conv, 1
  br i1 %cmp, label %if.then, label %if.else

if.then:                                          ; preds = %entry
  %2 = load ptr, ptr %params.addr, align 8
  %arrayidx = getelementptr inbounds i32, ptr %2, i64 0
  %3 = load i32, ptr %arrayidx, align 4
  %call3 = call noundef float @_ZN9SampleICC6icFtoDEi(i32 noundef %3)
  store float %call3, ptr %g, align 4
  %4 = load ptr, ptr %params.addr, align 8
  %arrayidx4 = getelementptr inbounds i32, ptr %4, i64 1
  %5 = load i32, ptr %arrayidx4, align 4
  %call5 = call noundef float @_ZN9SampleICC6icFtoDEi(i32 noundef %5)
  store float %call5, ptr %a, align 4
  %6 = load ptr, ptr %params.addr, align 8
  %arrayidx6 = getelementptr inbounds i32, ptr %6, i64 2
  %7 = load i32, ptr %arrayidx6, align 4
  %call7 = call noundef float @_ZN9SampleICC6icFtoDEi(i32 noundef %7)
  store float %call7, ptr %b, align 4
  %8 = load float, ptr %v.addr, align 4
  %9 = load float, ptr %b, align 4
  %fneg = fneg float %9
  %10 = load float, ptr %a, align 4
  %div = fdiv float %fneg, %10
  %cmp8 = fcmp oge float %8, %div
  br i1 %cmp8, label %cond.true, label %cond.false

cond.true:                                        ; preds = %if.then
  %11 = load float, ptr %a, align 4
  %12 = load float, ptr %v.addr, align 4
  %13 = load float, ptr %b, align 4
  %14 = call float @llvm.fmuladd.f32(float %11, float %12, float %13)
  %15 = load float, ptr %g, align 4
  %call9 = call noundef float @_ZSt3powff(float noundef %14, float noundef %15)
  br label %cond.end

cond.false:                                       ; preds = %if.then
  br label %cond.end

cond.end:                                         ; preds = %cond.false, %cond.true
  %cond = phi float [ %call9, %cond.true ], [ 0.000000e+00, %cond.false ]
  store float %cond, ptr %v.addr, align 4
  br label %if.end90

if.else:                                          ; preds = %entry
  %16 = load i16, ptr %type.addr, align 2
  %conv10 = zext i16 %16 to i32
  %cmp11 = icmp eq i32 %conv10, 2
  br i1 %cmp11, label %if.then12, label %if.else32

if.then12:                                        ; preds = %if.else
  %17 = load ptr, ptr %params.addr, align 8
  %arrayidx14 = getelementptr inbounds i32, ptr %17, i64 0
  %18 = load i32, ptr %arrayidx14, align 4
  %call15 = call noundef float @_ZN9SampleICC6icFtoDEi(i32 noundef %18)
  store float %call15, ptr %g13, align 4
  %19 = load ptr, ptr %params.addr, align 8
  %arrayidx17 = getelementptr inbounds i32, ptr %19, i64 1
  %20 = load i32, ptr %arrayidx17, align 4
  %call18 = call noundef float @_ZN9SampleICC6icFtoDEi(i32 noundef %20)
  store float %call18, ptr %a16, align 4
  %21 = load ptr, ptr %params.addr, align 8
  %arrayidx20 = getelementptr inbounds i32, ptr %21, i64 2
  %22 = load i32, ptr %arrayidx20, align 4
  %call21 = call noundef float @_ZN9SampleICC6icFtoDEi(i32 noundef %22)
  store float %call21, ptr %b19, align 4
  %23 = load ptr, ptr %params.addr, align 8
  %arrayidx22 = getelementptr inbounds i32, ptr %23, i64 3
  %24 = load i32, ptr %arrayidx22, align 4
  %call23 = call noundef float @_ZN9SampleICC6icFtoDEi(i32 noundef %24)
  store float %call23, ptr %c, align 4
  %25 = load float, ptr %v.addr, align 4
  %26 = load float, ptr %b19, align 4
  %fneg24 = fneg float %26
  %27 = load float, ptr %a16, align 4
  %div25 = fdiv float %fneg24, %27
  %cmp26 = fcmp oge float %25, %div25
  br i1 %cmp26, label %cond.true27, label %cond.false29

cond.true27:                                      ; preds = %if.then12
  %28 = load float, ptr %a16, align 4
  %29 = load float, ptr %v.addr, align 4
  %30 = load float, ptr %b19, align 4
  %31 = call float @llvm.fmuladd.f32(float %28, float %29, float %30)
  %32 = load float, ptr %g13, align 4
  %call28 = call noundef float @_ZSt3powff(float noundef %31, float noundef %32)
  %33 = load float, ptr %c, align 4
  %add = fadd float %call28, %33
  br label %cond.end30

cond.false29:                                     ; preds = %if.then12
  %34 = load float, ptr %c, align 4
  br label %cond.end30

cond.end30:                                       ; preds = %cond.false29, %cond.true27
  %cond31 = phi float [ %add, %cond.true27 ], [ %34, %cond.false29 ]
  store float %cond31, ptr %v.addr, align 4
  br label %if.end89

if.else32:                                        ; preds = %if.else
  %35 = load i16, ptr %type.addr, align 2
  %conv33 = zext i16 %35 to i32
  %cmp34 = icmp eq i32 %conv33, 3
  br i1 %cmp34, label %if.then35, label %if.else56

if.then35:                                        ; preds = %if.else32
  %36 = load ptr, ptr %params.addr, align 8
  %arrayidx37 = getelementptr inbounds i32, ptr %36, i64 0
  %37 = load i32, ptr %arrayidx37, align 4
  %call38 = call noundef float @_ZN9SampleICC6icFtoDEi(i32 noundef %37)
  store float %call38, ptr %g36, align 4
  %38 = load ptr, ptr %params.addr, align 8
  %arrayidx40 = getelementptr inbounds i32, ptr %38, i64 1
  %39 = load i32, ptr %arrayidx40, align 4
  %call41 = call noundef float @_ZN9SampleICC6icFtoDEi(i32 noundef %39)
  store float %call41, ptr %a39, align 4
  %40 = load ptr, ptr %params.addr, align 8
  %arrayidx43 = getelementptr inbounds i32, ptr %40, i64 2
  %41 = load i32, ptr %arrayidx43, align 4
  %call44 = call noundef float @_ZN9SampleICC6icFtoDEi(i32 noundef %41)
  store float %call44, ptr %b42, align 4
  %42 = load ptr, ptr %params.addr, align 8
  %arrayidx46 = getelementptr inbounds i32, ptr %42, i64 3
  %43 = load i32, ptr %arrayidx46, align 4
  %call47 = call noundef float @_ZN9SampleICC6icFtoDEi(i32 noundef %43)
  store float %call47, ptr %c45, align 4
  %44 = load ptr, ptr %params.addr, align 8
  %arrayidx48 = getelementptr inbounds i32, ptr %44, i64 4
  %45 = load i32, ptr %arrayidx48, align 4
  %call49 = call noundef float @_ZN9SampleICC6icFtoDEi(i32 noundef %45)
  store float %call49, ptr %d, align 4
  %46 = load float, ptr %v.addr, align 4
  %47 = load float, ptr %d, align 4
  %cmp50 = fcmp oge float %46, %47
  br i1 %cmp50, label %cond.true51, label %cond.false53

cond.true51:                                      ; preds = %if.then35
  %48 = load float, ptr %a39, align 4
  %49 = load float, ptr %v.addr, align 4
  %50 = load float, ptr %b42, align 4
  %51 = call float @llvm.fmuladd.f32(float %48, float %49, float %50)
  %52 = load float, ptr %g36, align 4
  %call52 = call noundef float @_ZSt3powff(float noundef %51, float noundef %52)
  br label %cond.end54

cond.false53:                                     ; preds = %if.then35
  %53 = load float, ptr %c45, align 4
  %54 = load float, ptr %v.addr, align 4
  %mul = fmul float %53, %54
  br label %cond.end54

cond.end54:                                       ; preds = %cond.false53, %cond.true51
  %cond55 = phi float [ %call52, %cond.true51 ], [ %mul, %cond.false53 ]
  store float %cond55, ptr %v.addr, align 4
  br label %if.end88

if.else56:                                        ; preds = %if.else32
  %55 = load i16, ptr %type.addr, align 2
  %conv57 = zext i16 %55 to i32
  %cmp58 = icmp eq i32 %conv57, 4
  br i1 %cmp58, label %if.then59, label %if.end

if.then59:                                        ; preds = %if.else56
  %56 = load ptr, ptr %params.addr, align 8
  %arrayidx61 = getelementptr inbounds i32, ptr %56, i64 0
  %57 = load i32, ptr %arrayidx61, align 4
  %call62 = call noundef float @_ZN9SampleICC6icFtoDEi(i32 noundef %57)
  store float %call62, ptr %g60, align 4
  %58 = load ptr, ptr %params.addr, align 8
  %arrayidx64 = getelementptr inbounds i32, ptr %58, i64 1
  %59 = load i32, ptr %arrayidx64, align 4
  %call65 = call noundef float @_ZN9SampleICC6icFtoDEi(i32 noundef %59)
  store float %call65, ptr %a63, align 4
  %60 = load ptr, ptr %params.addr, align 8
  %arrayidx67 = getelementptr inbounds i32, ptr %60, i64 2
  %61 = load i32, ptr %arrayidx67, align 4
  %call68 = call noundef float @_ZN9SampleICC6icFtoDEi(i32 noundef %61)
  store float %call68, ptr %b66, align 4
  %62 = load ptr, ptr %params.addr, align 8
  %arrayidx70 = getelementptr inbounds i32, ptr %62, i64 3
  %63 = load i32, ptr %arrayidx70, align 4
  %call71 = call noundef float @_ZN9SampleICC6icFtoDEi(i32 noundef %63)
  store float %call71, ptr %c69, align 4
  %64 = load ptr, ptr %params.addr, align 8
  %arrayidx73 = getelementptr inbounds i32, ptr %64, i64 4
  %65 = load i32, ptr %arrayidx73, align 4
  %call74 = call noundef float @_ZN9SampleICC6icFtoDEi(i32 noundef %65)
  store float %call74, ptr %d72, align 4
  %66 = load ptr, ptr %params.addr, align 8
  %arrayidx75 = getelementptr inbounds i32, ptr %66, i64 5
  %67 = load i32, ptr %arrayidx75, align 4
  %call76 = call noundef float @_ZN9SampleICC6icFtoDEi(i32 noundef %67)
  store float %call76, ptr %e, align 4
  %68 = load ptr, ptr %params.addr, align 8
  %arrayidx77 = getelementptr inbounds i32, ptr %68, i64 6
  %69 = load i32, ptr %arrayidx77, align 4
  %call78 = call noundef float @_ZN9SampleICC6icFtoDEi(i32 noundef %69)
  store float %call78, ptr %f, align 4
  %70 = load float, ptr %v.addr, align 4
  %71 = load float, ptr %d72, align 4
  %cmp79 = fcmp oge float %70, %71
  br i1 %cmp79, label %cond.true80, label %cond.false84

cond.true80:                                      ; preds = %if.then59
  %72 = load float, ptr %a63, align 4
  %73 = load float, ptr %v.addr, align 4
  %74 = load float, ptr %b66, align 4
  %75 = call float @llvm.fmuladd.f32(float %72, float %73, float %74)
  %76 = load float, ptr %g60, align 4
  %call82 = call noundef float @_ZSt3powff(float noundef %75, float noundef %76)
  %77 = load float, ptr %e, align 4
  %add83 = fadd float %call82, %77
  br label %cond.end86

cond.false84:                                     ; preds = %if.then59
  %78 = load float, ptr %c69, align 4
  %79 = load float, ptr %v.addr, align 4
  %80 = load float, ptr %f, align 4
  %81 = call float @llvm.fmuladd.f32(float %78, float %79, float %80)
  br label %cond.end86

cond.end86:                                       ; preds = %cond.false84, %cond.true80
  %cond87 = phi float [ %add83, %cond.true80 ], [ %81, %cond.false84 ]
  store float %cond87, ptr %v.addr, align 4
  br label %if.end

if.end:                                           ; preds = %cond.end86, %if.else56
  br label %if.end88

if.end88:                                         ; preds = %if.end, %cond.end54
  br label %if.end89

if.end89:                                         ; preds = %if.end88, %cond.end30
  br label %if.end90

if.end90:                                         ; preds = %if.end89, %cond.end
  store float 0.000000e+00, ptr %ref.tmp91, align 4
  %call92 = call noundef nonnull align 4 dereferenceable(4) ptr @_ZSt3maxIfERKT_S2_S2_(ptr noundef nonnull align 4 dereferenceable(4) %ref.tmp91, ptr noundef nonnull align 4 dereferenceable(4) %v.addr)
  store float 1.000000e+00, ptr %ref.tmp93, align 4
  %call94 = call noundef nonnull align 4 dereferenceable(4) ptr @_ZSt3minIfERKT_S2_S2_(ptr noundef nonnull align 4 dereferenceable(4) %call92, ptr noundef nonnull align 4 dereferenceable(4) %ref.tmp93)
  %82 = load float, ptr %call94, align 4
  ret float %82
}