; Function Attrs: mustprogress nofree nounwind willreturn memory(write, argmem: readwrite) uwtable
define hidden noundef float @_ZN19OpenColorIO_v2_4dev15LocalFileFormat20ApplyParametricCurveEftPKi(float noundef %v, i16 noundef zeroext %type, ptr nocapture noundef readonly %params) local_unnamed_addr #15 align 2 {
entry:
  %cmp.i = fcmp ogt float %v, 0.000000e+00
  %.sroa.speculated100 = select i1 %cmp.i, float %v, float 0.000000e+00
  %cmp.i31 = fcmp ogt float %.sroa.speculated100, 1.000000e+00
  %.sroa.speculated96 = select i1 %cmp.i31, float 1.000000e+00, float %.sroa.speculated100
  switch i16 %type, label %if.end90 [
    i16 1, label %if.then
    i16 2, label %if.then12
    i16 3, label %if.then35
    i16 4, label %if.then59
  ]

if.then:                                          ; preds = %entry
  %arrayidx4 = getelementptr inbounds i8, ptr %params, i64 4
  %0 = load i32, ptr %arrayidx4, align 4
  %conv.i33 = sitofp i32 %0 to double
  %div.i34 = fmul double %conv.i33, 0x3EF0000000000000
  %conv1.i35 = fptrunc double %div.i34 to float
  %arrayidx6 = getelementptr inbounds i8, ptr %params, i64 8
  %1 = load i32, ptr %arrayidx6, align 4
  %conv.i36 = sitofp i32 %1 to double
  %div.i37 = fmul double %conv.i36, 0x3EF0000000000000
  %conv1.i38 = fptrunc double %div.i37 to float
  %fneg = fneg float %conv1.i38
  %div = fdiv float %fneg, %conv1.i35
  %cmp8 = fcmp ult float %.sroa.speculated96, %div
  br i1 %cmp8, label %if.end90, label %cond.true

cond.true:                                        ; preds = %if.then
  %2 = load i32, ptr %params, align 4
  %conv.i = sitofp i32 %2 to double
  %div.i = fmul double %conv.i, 0x3EF0000000000000
  %conv1.i = fptrunc double %div.i to float
  %3 = tail call float @llvm.fmuladd.f32(float %conv1.i35, float %.sroa.speculated96, float %conv1.i38)
  %call.i = tail call noundef float @powf(float noundef %3, float noundef %conv1.i) #28
  br label %if.end90

if.then12:                                        ; preds = %entry
  %arrayidx17 = getelementptr inbounds i8, ptr %params, i64 4
  %4 = load i32, ptr %arrayidx17, align 4
  %conv.i42 = sitofp i32 %4 to double
  %div.i43 = fmul double %conv.i42, 0x3EF0000000000000
  %conv1.i44 = fptrunc double %div.i43 to float
  %arrayidx20 = getelementptr inbounds i8, ptr %params, i64 8
  %5 = load i32, ptr %arrayidx20, align 4
  %conv.i45 = sitofp i32 %5 to double
  %div.i46 = fmul double %conv.i45, 0x3EF0000000000000
  %conv1.i47 = fptrunc double %div.i46 to float
  %arrayidx22 = getelementptr inbounds i8, ptr %params, i64 12
  %6 = load i32, ptr %arrayidx22, align 4
  %conv.i48 = sitofp i32 %6 to double
  %div.i49 = fmul double %conv.i48, 0x3EF0000000000000
  %conv1.i50 = fptrunc double %div.i49 to float
  %fneg24 = fneg float %conv1.i47
  %div25 = fdiv float %fneg24, %conv1.i44
  %cmp26 = fcmp ult float %.sroa.speculated96, %div25
  br i1 %cmp26, label %if.end90, label %cond.true27

cond.true27:                                      ; preds = %if.then12
  %7 = load i32, ptr %params, align 4
  %conv.i39 = sitofp i32 %7 to double
  %div.i40 = fmul double %conv.i39, 0x3EF0000000000000
  %conv1.i41 = fptrunc double %div.i40 to float
  %8 = tail call float @llvm.fmuladd.f32(float %conv1.i44, float %.sroa.speculated96, float %conv1.i47)
  %call.i51 = tail call noundef float @powf(float noundef %8, float noundef %conv1.i41) #28
  %add = fadd float %call.i51, %conv1.i50
  br label %if.end90

if.then35:                                        ; preds = %entry
  %arrayidx48 = getelementptr inbounds i8, ptr %params, i64 16
  %9 = load i32, ptr %arrayidx48, align 4
  %conv.i64 = sitofp i32 %9 to double
  %div.i65 = fmul double %conv.i64, 0x3EF0000000000000
  %conv1.i66 = fptrunc double %div.i65 to float
  %cmp50 = fcmp ult float %.sroa.speculated96, %conv1.i66
  br i1 %cmp50, label %cond.false53, label %cond.true51

cond.true51:                                      ; preds = %if.then35
  %arrayidx43 = getelementptr inbounds i8, ptr %params, i64 8
  %10 = load i32, ptr %arrayidx43, align 4
  %conv.i58 = sitofp i32 %10 to double
  %div.i59 = fmul double %conv.i58, 0x3EF0000000000000
  %conv1.i60 = fptrunc double %div.i59 to float
  %arrayidx40 = getelementptr inbounds i8, ptr %params, i64 4
  %11 = load i32, ptr %arrayidx40, align 4
  %conv.i55 = sitofp i32 %11 to double
  %div.i56 = fmul double %conv.i55, 0x3EF0000000000000
  %conv1.i57 = fptrunc double %div.i56 to float
  %12 = load i32, ptr %params, align 4
  %conv.i52 = sitofp i32 %12 to double
  %div.i53 = fmul double %conv.i52, 0x3EF0000000000000
  %conv1.i54 = fptrunc double %div.i53 to float
  %13 = tail call float @llvm.fmuladd.f32(float %conv1.i57, float %.sroa.speculated96, float %conv1.i60)
  %call.i67 = tail call noundef float @powf(float noundef %13, float noundef %conv1.i54) #28
  br label %if.end90

cond.false53:                                     ; preds = %if.then35
  %arrayidx46 = getelementptr inbounds i8, ptr %params, i64 12
  %14 = load i32, ptr %arrayidx46, align 4
  %conv.i61 = sitofp i32 %14 to double
  %div.i62 = fmul double %conv.i61, 0x3EF0000000000000
  %conv1.i63 = fptrunc double %div.i62 to float
  %mul = fmul float %.sroa.speculated96, %conv1.i63
  br label %if.end90

if.then59:                                        ; preds = %entry
  %arrayidx73 = getelementptr inbounds i8, ptr %params, i64 16
  %15 = load i32, ptr %arrayidx73, align 4
  %conv.i80 = sitofp i32 %15 to double
  %div.i81 = fmul double %conv.i80, 0x3EF0000000000000
  %conv1.i82 = fptrunc double %div.i81 to float
  %cmp79 = fcmp ult float %.sroa.speculated96, %conv1.i82
  br i1 %cmp79, label %cond.false84, label %cond.true80

cond.true80:                                      ; preds = %if.then59
  %arrayidx75 = getelementptr inbounds i8, ptr %params, i64 20
  %16 = load i32, ptr %arrayidx75, align 4
  %conv.i83 = sitofp i32 %16 to double
  %div.i84 = fmul double %conv.i83, 0x3EF0000000000000
  %conv1.i85 = fptrunc double %div.i84 to float
  %arrayidx67 = getelementptr inbounds i8, ptr %params, i64 8
  %17 = load i32, ptr %arrayidx67, align 4
  %conv.i74 = sitofp i32 %17 to double
  %div.i75 = fmul double %conv.i74, 0x3EF0000000000000
  %conv1.i76 = fptrunc double %div.i75 to float
  %arrayidx64 = getelementptr inbounds i8, ptr %params, i64 4
  %18 = load i32, ptr %arrayidx64, align 4
  %conv.i71 = sitofp i32 %18 to double
  %div.i72 = fmul double %conv.i71, 0x3EF0000000000000
  %conv1.i73 = fptrunc double %div.i72 to float
  %19 = load i32, ptr %params, align 4
  %conv.i68 = sitofp i32 %19 to double
  %div.i69 = fmul double %conv.i68, 0x3EF0000000000000
  %conv1.i70 = fptrunc double %div.i69 to float
  %20 = tail call float @llvm.fmuladd.f32(float %conv1.i73, float %.sroa.speculated96, float %conv1.i76)
  %call.i89 = tail call noundef float @powf(float noundef %20, float noundef %conv1.i70) #28
  %add83 = fadd float %call.i89, %conv1.i85
  br label %if.end90

cond.false84:                                     ; preds = %if.then59
  %arrayidx77 = getelementptr inbounds i8, ptr %params, i64 24
  %21 = load i32, ptr %arrayidx77, align 4
  %conv.i86 = sitofp i32 %21 to double
  %div.i87 = fmul double %conv.i86, 0x3EF0000000000000
  %conv1.i88 = fptrunc double %div.i87 to float
  %arrayidx70 = getelementptr inbounds i8, ptr %params, i64 12
  %22 = load i32, ptr %arrayidx70, align 4
  %conv.i77 = sitofp i32 %22 to double
  %div.i78 = fmul double %conv.i77, 0x3EF0000000000000
  %conv1.i79 = fptrunc double %div.i78 to float
  %23 = tail call float @llvm.fmuladd.f32(float %conv1.i79, float %.sroa.speculated96, float %conv1.i88)
  br label %if.end90

if.end90:                                         ; preds = %cond.true80, %cond.false84, %cond.true51, %cond.false53, %cond.true27, %if.then12, %cond.true, %if.then, %entry
  %v.addr.0 = phi float [ %.sroa.speculated96, %entry ], [ %call.i, %cond.true ], [ 0.000000e+00, %if.then ], [ %add, %cond.true27 ], [ %conv1.i50, %if.then12 ], [ %call.i67, %cond.true51 ], [ %mul, %cond.false53 ], [ %add83, %cond.true80 ], [ %23, %cond.false84 ]
  %cmp.i90 = fcmp ogt float %v.addr.0, 0.000000e+00
  %.sroa.speculated94 = select i1 %cmp.i90, float %v.addr.0, float 0.000000e+00
  %cmp.i92 = fcmp ogt float %.sroa.speculated94, 1.000000e+00
  %.sroa.speculated = select i1 %cmp.i92, float 1.000000e+00, float %.sroa.speculated94
  ret float %.sroa.speculated
}